; Function Attrs: mustprogress nofree norecurse nosync nounwind willreturn memory(argmem: read) uwtable
define hidden noundef zeroext i1 @_ZNK18CallStaticJavaNode3cmpERK4Node(ptr nocapture noundef nonnull readonly align 8 dereferenceable(145) %0, ptr nocapture noundef nonnull readonly align 8 dereferenceable(52) %1) unnamed_addr #1 align 2 {
  %3 = getelementptr inbounds i8, ptr %0, i64 88
  %4 = load ptr, ptr %3, align 8
  %5 = getelementptr inbounds i8, ptr %1, i64 88
  %6 = load ptr, ptr %5, align 8
  %7 = icmp eq ptr %4, %6
  br i1 %7, label %_ZNK8CallNode3cmpERK4Node.exit.i, label %_ZNK12CallJavaNode3cmpERK4Node.exit

_ZNK8CallNode3cmpERK4Node.exit.i:                 ; preds = %2
  %8 = getelementptr inbounds i8, ptr %0, i64 56
  %9 = load ptr, ptr %8, align 8
  %10 = getelementptr inbounds i8, ptr %1, i64 56
  %11 = load ptr, ptr %10, align 8
  %12 = icmp eq ptr %9, %11
  br i1 %12, label %13, label %_ZNK12CallJavaNode3cmpERK4Node.exit

13:                                               ; preds = %_ZNK8CallNode3cmpERK4Node.exit.i
  %14 = getelementptr inbounds i8, ptr %0, i64 136
  %15 = load ptr, ptr %14, align 8
  %16 = getelementptr inbounds i8, ptr %1, i64 136
  %17 = load ptr, ptr %16, align 8
  %18 = icmp eq ptr %15, %17
  br i1 %18, label %19, label %_ZNK12CallJavaNode3cmpERK4Node.exit

19:                                               ; preds = %13
  %20 = getelementptr inbounds i8, ptr %0, i64 130
  %21 = load i8, ptr %20, align 2
  %22 = getelementptr inbounds i8, ptr %1, i64 130
  %23 = load i8, ptr %22, align 2
  %24 = xor i8 %23, %21
  %25 = and i8 %24, 1
  %26 = icmp eq i8 %25, 0
  br label %_ZNK12CallJavaNode3cmpERK4Node.exit

_ZNK12CallJavaNode3cmpERK4Node.exit:              ; preds = %2, %_ZNK8CallNode3cmpERK4Node.exit.i, %13, %19
  %27 = phi i1 [ false, %13 ], [ false, %_ZNK8CallNode3cmpERK4Node.exit.i ], [ %26, %19 ], [ false, %2 ]
  ret i1 %27
}